-----BEGIN CERTIFICATE-----
MIIEXzCCA0egAwIBAgIPAJKRAAEAAv81qjqRMSWMMA0GCSqGSIb3DQEBBQUAMHYx
CzAJBgNVBAYTAkRFMRwwGgYDVQQKExNUQyBUcnVzdENlbnRlciBHbWJIMSIwIAYD
VQQLExlUQyBUcnVzdENlbnRlciBDbGFzcyAyIENBMSUwIwYDVQQDExxUQyBUcnVz
dENlbnRlciBDbGFzcyAyIENBIElJMB4XDTA3MTEyNjE2MDEyM1oXDTI1MTIzMTIy
Mjk1N1owgbwxCzAJBgNVBAYTAkRFMRAwDgYDVQQIEwdIYW1idXJnMRAwDgYDVQQH
EwdIYW1idXJnMTowOAYDVQQKEzFUQyBUcnVzdENlbnRlciBmb3IgU2VjdXJpdHkg
aW4gRGF0YSBOZXR3b3JrcyBHbWJIMSIwIAYDVQQLExlUQyBUcnVzdENlbnRlciBD
bGFzcyAyIENBMSkwJwYJKoZIhvcNAQkBFhpjZXJ0aWZpY2F0ZUB0cnVzdGNlbnRl
ci5kZTCBnzANBgkqhkiG9w0BAQEFAAOBjQAwgYkCgYEA2jjo7TIAKXGDAQ2/jAHc
2satOaSpii/Vi1xoX1DGYvVmvcqRIuyqHVHXPbNRsoNOXctJsPBMVeVrLceFCzAc
kk6C1MoC7fdvvtzg4xS4BVPymvRWi1qehZPRtIJWrk27qEtXFrz++Fie+CmNsHvN
eMlPrItnDPGc+/xXm1dcTw0CAwEAAaOCASUwggEhMEIGCCsGAQUFBwEBBDYwNDAy
BggrBgEFBQcwAYYmaHR0cDovL29jc3AudGNjbGFzczItSUkudHJ1c3RjZW50ZXIu
ZGUwHwYDVR0jBBgwFoAU46tUTICh21ZDt5FKy/OCehNcCKswDwYDVR0TAQH/BAUw
AwEB/zBFBgNVHSAEPjA8MDoGBFUdIAAwMjAwBggrBgEFBQcCARYkaHR0cDovL3d3
dy50cnVzdGNlbnRlci5kZS9ndWlkZWxpbmVzMA4GA1UdDwEB/wQEAwIBBjBSBgNV
HR8ESzBJMEegRaBDhkFodHRwOi8vY3JsLnRjY2xhc3MyLWlpLnRydXN0Y2VudGVy
LmRlL2NybC92Mi90Y19jbGFzc18yX2NhX0lJLmNybDANBgkqhkiG9w0BAQUFAAOC
AQEAcF/geGiuLfY4w3n/JhObAP4AF60FbybVEao4UyHuIAyTotXMiW4mLWALLKss
K8ayLpTOJS02nvdH5WTRlz+ingMcxGkOCJqNzqpG19EoAGx+4mZmi+bX+vHpbzIs
CcMhY5rpCyb8Tgq/oJnB/aHzTxOUz1fWLfCGAgU4fC0bzYdzPK30uo2CcdWMcbrb
6jjQmBXvALkvk4OMyoeYBPOsiSpHlxED6kLuLldUFz+IxI257YL2a464aXrF7VZE
bJSC4vxayl5kOGgvHbUAo11YSKQV8V+18os6ie7HWLY7wJ0FHL6GOnYbfnV1EAtD
lHA6DpKRfkOsnriUz3IcygIPBA==
-----END CERTIFICATE-----
Certificate:
    Data:
        Version: 3 (0x2)
        Serial Number:
            92:91:00:01:00:02:ff:35:aa:3a:91:31:25:8c
    Signature Algorithm: sha1WithRSAEncryption
        Issuer: C=DE, O=TC TrustCenter GmbH, OU=TC TrustCenter Class 2 CA, CN=TC TrustCenter Class 2 CA II
        Validity
            Not Before: Nov 26 16:01:23 2007 GMT
            Not After : Dec 31 22:29:57 2025 GMT
        Subject: C=DE, ST=Hamburg, L=Hamburg, O=TC TrustCenter for Security in Data Networks GmbH, OU=TC TrustCenter Class 2 CA/emailAddress=certificate@trustcenter.de
        Subject Public Key Info:
            Public Key Algorithm: rsaEncryption
                Public-Key: (1024 bit)
                Modulus:
                    00:da:38:e8:ed:32:00:29:71:83:01:0d:bf:8c:01:
                    dc:da:c6:ad:39:a4:a9:8a:2f:d5:8b:5c:68:5f:50:
                    c6:62:f5:66:bd:ca:91:22:ec:aa:1d:51:d7:3d:b3:
                    51:b2:83:4e:5d:cb:49:b0:f0:4c:55:e5:6b:2d:c7:
                    85:0b:30:1c:92:4e:82:d4:ca:02:ed:f7:6f:be:dc:
                    e0:e3:14:b8:05:53:f2:9a:f4:56:8b:5a:9e:85:93:
                    d1:b4:82:56:ae:4d:bb:a8:4b:57:16:bc:fe:f8:58:
                    9e:f8:29:8d:b0:7b:cd:78:c9:4f:ac:8b:67:0c:f1:
                    9c:fb:fc:57:9b:57:5c:4f:0d
                Exponent: 65537 (0x10001)
        X509v3 extensions:
            Authority Information Access: 
                OCSP - URI:http://ocsp.tcclass2-II.trustcenter.de

            X509v3 Authority Key Identifier: 
                keyid:E3:AB:54:4C:80:A1:DB:56:43:B7:91:4A:CB:F3:82:7A:13:5C:08:AB

            X509v3 Basic Constraints: critical
                CA:TRUE
            X509v3 Certificate Policies: 
                Policy: X509v3 Any Policy
                  CPS: http://www.trustcenter.de/guidelines

            X509v3 Key Usage: critical
                Certificate Sign, CRL Sign
            X509v3 CRL Distribution Points: 

                Full Name:
                  URI:http://crl.tcclass2-ii.trustcenter.de/crl/v2/tc_class_2_ca_II.crl

    Signature Algorithm: sha1WithRSAEncryption
         70:5f:e0:78:68:ae:2d:f6:38:c3:79:ff:26:13:9b:00:fe:00:
         17:ad:05:6f:26:d5:11:aa:38:53:21:ee:20:0c:93:a2:d5:cc:
         89:6e:26:2d:60:0b:2c:ab:2c:2b:c6:b2:2e:94:ce:25:2d:36:
         9e:f7:47:e5:64:d1:97:3f:a2:9e:03:1c:c4:69:0e:08:9a:8d:
         ce:aa:46:d7:d1:28:00:6c:7e:e2:66:66:8b:e6:d7:fa:f1:e9:
         6f:32:2c:09:c3:21:63:9a:e9:0b:26:fc:4e:0a:bf:a0:99:c1:
         fd:a1:f3:4f:13:94:cf:57:d6:2d:f0:86:02:05:38:7c:2d:1b:
         cd:87:73:3c:ad:f4:ba:8d:82:71:d5:8c:71:ba:db:ea:38:d0:
         98:15:ef:00:b9:2f:93:83:8c:ca:87:98:04:f3:ac:89:2a:47:
         97:11:03:ea:42:ee:2e:57:54:17:3f:88:c4:8d:b9:ed:82:f6:
         6b:8e:b8:69:7a:c5:ed:56:44:6c:94:82:e2:fc:5a:ca:5e:64:
         38:68:2f:1d:b5:00:a3:5d:58:48:a4:15:f1:5f:b5:f2:8b:3a:
         89:ee:c7:58:b6:3b:c0:9d:05:1c:be:86:3a:76:1b:7e:75:75:
         10:0b:43:94:70:3a:0e:92:91:7e:43:ac:9e:b8:94:cf:72:1c:
         ca:02:0f:04
SHA1 Fingerprint=51:EE:C2:46:09:78:95:9B:AE:56:CA:0A:71:EB:35:D6:CA:04:21:2D
