-----BEGIN CERTIFICATE-----
MIIEXzCCA0egAwIBAgIPANlQAAEAAnN3PIA80nGeMA0GCSqGSIb3DQEBBQUAMHYx
CzAJBgNVBAYTAkRFMRwwGgYDVQQKExNUQyBUcnVzdENlbnRlciBHbWJIMSIwIAYD
VQQLExlUQyBUcnVzdENlbnRlciBDbGFzcyAzIENBMSUwIwYDVQQDExxUQyBUcnVz
dENlbnRlciBDbGFzcyAzIENBIElJMB4XDTA3MTEwNjE1NTk1OVoXDTI1MTIzMTIy
NTk1OVowgbwxCzAJBgNVBAYTAkRFMRAwDgYDVQQIEwdIYW1idXJnMRAwDgYDVQQH
EwdIYW1idXJnMTowOAYDVQQKEzFUQyBUcnVzdENlbnRlciBmb3IgU2VjdXJpdHkg
aW4gRGF0YSBOZXR3b3JrcyBHbWJIMSIwIAYDVQQLExlUQyBUcnVzdENlbnRlciBD
bGFzcyAzIENBMSkwJwYJKoZIhvcNAQkBFhpjZXJ0aWZpY2F0ZUB0cnVzdGNlbnRl
ci5kZTCBnzANBgkqhkiG9w0BAQEFAAOBjQAwgYkCgYEAtrTBNQUuDY3soEBqHA4n
plCSa1AbB94u53bM4Nr8hKhejGNqK03ZTgJ2EcEL8o15ygC28bAO1/ukFz2vq2l6
lie/rzOhmipZqsS1NwjyEqUxtkP1MpZxKCirjSiG37vu4wx9MNbDUquPXSeca8Cj
5wVrV0lEs27qZM/SjnpQd3cCAwEAAaOCASUwggEhMEIGCCsGAQUFBwEBBDYwNDAy
BggrBgEFBQcwAYYmaHR0cDovL29jc3AudGNjbGFzczMtSUkudHJ1c3RjZW50ZXIu
ZGUwHwYDVR0jBBgwFoAU1KL8n7PD2APTV1wHpNAkp8DyANQwDwYDVR0TAQH/BAUw
AwEB/zBFBgNVHSAEPjA8MDoGBFUdIAAwMjAwBggrBgEFBQcCARYkaHR0cDovL3d3
dy50cnVzdGNlbnRlci5kZS9ndWlkZWxpbmVzMA4GA1UdDwEB/wQEAwIBBjBSBgNV
HR8ESzBJMEegRaBDhkFodHRwOi8vY3JsLnRjY2xhc3MzLWlpLnRydXN0Y2VudGVy
LmRlL2NybC92Mi90Y19jbGFzc18zX2NhX0lJLmNybDANBgkqhkiG9w0BAQUFAAOC
AQEAlDHgwsJab5TEIrHUo/etrPwPB7B/ozeZLooN+a7iZCtCWGNDDhzMyVNGS9Aw
/PRxbd25EfFAGJ8xzkwfk4NQAMaW2qVu9/mJ7vkNeKeIgrkjo7KuFdEpdJTwbNIA
dzK0GhCCeGxIIfcJEgZal6tPwKDFN/SNLI1VoNECZQBdbmyceUTQ17JXL7KhXg38
Oo4Umc0YCt5nugrz/y62gtvASk7LpvxsHfI55abFfdc9+g+thSi4VQcFY7QPrIKo
eKwI1t4r+4RH4RAyyt/qhGKny7FMVUpqdXh2eR0tT7VgdqdpzMcpxxGW3Z7eJNZB
SSpLvhcI5/Zu+/GBv7E06jt+mw==
-----END CERTIFICATE-----
Certificate:
    Data:
        Version: 3 (0x2)
        Serial Number:
            d9:50:00:01:00:02:73:77:3c:80:3c:d2:71:9e
    Signature Algorithm: sha1WithRSAEncryption
        Issuer: C=DE, O=TC TrustCenter GmbH, OU=TC TrustCenter Class 3 CA, CN=TC TrustCenter Class 3 CA II
        Validity
            Not Before: Nov  6 15:59:59 2007 GMT
            Not After : Dec 31 22:59:59 2025 GMT
        Subject: C=DE, ST=Hamburg, L=Hamburg, O=TC TrustCenter for Security in Data Networks GmbH, OU=TC TrustCenter Class 3 CA/emailAddress=certificate@trustcenter.de
        Subject Public Key Info:
            Public Key Algorithm: rsaEncryption
                Public-Key: (1024 bit)
                Modulus:
                    00:b6:b4:c1:35:05:2e:0d:8d:ec:a0:40:6a:1c:0e:
                    27:a6:50:92:6b:50:1b:07:de:2e:e7:76:cc:e0:da:
                    fc:84:a8:5e:8c:63:6a:2b:4d:d9:4e:02:76:11:c1:
                    0b:f2:8d:79:ca:00:b6:f1:b0:0e:d7:fb:a4:17:3d:
                    af:ab:69:7a:96:27:bf:af:33:a1:9a:2a:59:aa:c4:
                    b5:37:08:f2:12:a5:31:b6:43:f5:32:96:71:28:28:
                    ab:8d:28:86:df:bb:ee:e3:0c:7d:30:d6:c3:52:ab:
                    8f:5d:27:9c:6b:c0:a3:e7:05:6b:57:49:44:b3:6e:
                    ea:64:cf:d2:8e:7a:50:77:77
                Exponent: 65537 (0x10001)
        X509v3 extensions:
            Authority Information Access: 
                OCSP - URI:http://ocsp.tcclass3-II.trustcenter.de

            X509v3 Authority Key Identifier: 
                keyid:D4:A2:FC:9F:B3:C3:D8:03:D3:57:5C:07:A4:D0:24:A7:C0:F2:00:D4

            X509v3 Basic Constraints: critical
                CA:TRUE
            X509v3 Certificate Policies: 
                Policy: X509v3 Any Policy
                  CPS: http://www.trustcenter.de/guidelines

            X509v3 Key Usage: critical
                Certificate Sign, CRL Sign
            X509v3 CRL Distribution Points: 

                Full Name:
                  URI:http://crl.tcclass3-ii.trustcenter.de/crl/v2/tc_class_3_ca_II.crl

    Signature Algorithm: sha1WithRSAEncryption
         94:31:e0:c2:c2:5a:6f:94:c4:22:b1:d4:a3:f7:ad:ac:fc:0f:
         07:b0:7f:a3:37:99:2e:8a:0d:f9:ae:e2:64:2b:42:58:63:43:
         0e:1c:cc:c9:53:46:4b:d0:30:fc:f4:71:6d:dd:b9:11:f1:40:
         18:9f:31:ce:4c:1f:93:83:50:00:c6:96:da:a5:6e:f7:f9:89:
         ee:f9:0d:78:a7:88:82:b9:23:a3:b2:ae:15:d1:29:74:94:f0:
         6c:d2:00:77:32:b4:1a:10:82:78:6c:48:21:f7:09:12:06:5a:
         97:ab:4f:c0:a0:c5:37:f4:8d:2c:8d:55:a0:d1:02:65:00:5d:
         6e:6c:9c:79:44:d0:d7:b2:57:2f:b2:a1:5e:0d:fc:3a:8e:14:
         99:cd:18:0a:de:67:ba:0a:f3:ff:2e:b6:82:db:c0:4a:4e:cb:
         a6:fc:6c:1d:f2:39:e5:a6:c5:7d:d7:3d:fa:0f:ad:85:28:b8:
         55:07:05:63:b4:0f:ac:82:a8:78:ac:08:d6:de:2b:fb:84:47:
         e1:10:32:ca:df:ea:84:62:a7:cb:b1:4c:55:4a:6a:75:78:76:
         79:1d:2d:4f:b5:60:76:a7:69:cc:c7:29:c7:11:96:dd:9e:de:
         24:d6:41:49:2a:4b:be:17:08:e7:f6:6e:fb:f1:81:bf:b1:34:
         ea:3b:7e:9b
SHA1 Fingerprint=02:6F:29:C6:6A:24:C2:2B:A2:03:9E:83:3E:1F:DC:54:0B:4C:16:A3
